target datalayout = "e-m:e-p270:32:32-p271:32:32-p272:64:64-i64:64-i128:128-f80:128-n8:16:32:64-S128"
target triple = "x86_64-pc-linux-gnu"

%struct.VLC = type { i32, ptr, i32, i32 }
%struct.VLCElem = type { %union.anon.2 }
%union.anon.2 = type { %struct.anon.3 }
%struct.anon.3 = type { i16, i16 }

@table_data = internal global [117592 x %struct.VLCElem] zeroinitializer, align 16

; Function Attrs: cold nounwind optsize uwtable
define internal void @rv34_gen_vlc_ext(ptr noundef %0, i32 noundef %1, ptr noundef %2, ptr noundef %3, ptr noundef %4) #3 {
  %6 = alloca ptr, align 8
  %7 = alloca i32, align 4
  %8 = alloca ptr, align 8
  %9 = alloca ptr, align 8
  %10 = alloca ptr, align 8
  %11 = alloca [17 x i32], align 16
  %12 = alloca [17 x i32], align 16
  %13 = alloca [1296 x i16], align 16
  %14 = alloca i32, align 4
  %15 = alloca i32, align 4
  %16 = alloca i32, align 4
  %17 = alloca i32, align 4
  store ptr %0, ptr %6, align 8, !tbaa !101
  store i32 %1, ptr %7, align 4, !tbaa !9
  store ptr %2, ptr %8, align 8, !tbaa !164
  store ptr %3, ptr %9, align 8, !tbaa !101
  store ptr %4, ptr %10, align 8, !tbaa !96
  call void @llvm.lifetime.start.p0(i64 68, ptr %11) #12
  call void @llvm.memset.p0.i64(ptr align 16 %11, i8 0, i64 68, i1 false)
  call void @llvm.lifetime.start.p0(i64 68, ptr %12) #12
  call void @llvm.lifetime.start.p0(i64 2592, ptr %13) #12
  call void @llvm.lifetime.start.p0(i64 4, ptr %14) #12
  call void @llvm.lifetime.start.p0(i64 4, ptr %15) #12
  store i32 0, ptr %15, align 4, !tbaa !9
  br label %18

18:                                               ; preds = %33, %5
  %19 = load i32, ptr %15, align 4, !tbaa !9
  %20 = load i32, ptr %7, align 4, !tbaa !9
  %21 = icmp slt i32 %19, %20
  br i1 %21, label %23, label %22

22:                                               ; preds = %18
  call void @llvm.lifetime.end.p0(i64 4, ptr %15) #12
  br label %36

23:                                               ; preds = %18
  %24 = load ptr, ptr %6, align 8, !tbaa !101
  %25 = load i32, ptr %15, align 4, !tbaa !9
  %26 = sext i32 %25 to i64
  %27 = getelementptr inbounds i8, ptr %24, i64 %26
  %28 = load i8, ptr %27, align 1, !tbaa !15
  %29 = zext i8 %28 to i64
  %30 = getelementptr inbounds nuw [17 x i32], ptr %11, i64 0, i64 %29
  %31 = load i32, ptr %30, align 4, !tbaa !9
  %32 = add nsw i32 %31, 1
  store i32 %32, ptr %30, align 4, !tbaa !9
  br label %33

33:                                               ; preds = %23
  %34 = load i32, ptr %15, align 4, !tbaa !9
  %35 = add nsw i32 %34, 1
  store i32 %35, ptr %15, align 4, !tbaa !9
  br label %18, !llvm.loop !166

36:                                               ; preds = %22
  %37 = getelementptr inbounds [17 x i32], ptr %11, i64 0, i64 0
  store i32 0, ptr %37, align 16, !tbaa !9
  %38 = getelementptr inbounds [17 x i32], ptr %12, i64 0, i64 0
  store i32 0, ptr %38, align 16, !tbaa !9
  call void @llvm.lifetime.start.p0(i64 4, ptr %16) #12
  store i32 0, ptr %16, align 4, !tbaa !9
  br label %39

39:                                               ; preds = %66, %36
  %40 = load i32, ptr %16, align 4, !tbaa !9
  %41 = icmp slt i32 %40, 16
  br i1 %41, label %43, label %42

42:                                               ; preds = %39
  call void @llvm.lifetime.end.p0(i64 4, ptr %16) #12
  br label %69

43:                                               ; preds = %39
  %44 = load i32, ptr %16, align 4, !tbaa !9
  %45 = sext i32 %44 to i64
  %46 = getelementptr inbounds [17 x i32], ptr %12, i64 0, i64 %45
  %47 = load i32, ptr %46, align 4, !tbaa !9
  %48 = load i32, ptr %16, align 4, !tbaa !9
  %49 = sext i32 %48 to i64
  %50 = getelementptr inbounds [17 x i32], ptr %11, i64 0, i64 %49
  %51 = load i32, ptr %50, align 4, !tbaa !9
  %52 = add nsw i32 %47, %51
  %53 = shl i32 %52, 1
  %54 = load i32, ptr %16, align 4, !tbaa !9
  %55 = add nsw i32 %54, 1
  %56 = sext i32 %55 to i64
  %57 = getelementptr inbounds [17 x i32], ptr %12, i64 0, i64 %56
  store i32 %53, ptr %57, align 4, !tbaa !9
  %58 = load i32, ptr %16, align 4, !tbaa !9
  %59 = sext i32 %58 to i64
  %60 = getelementptr inbounds [17 x i32], ptr %11, i64 0, i64 %59
  %61 = load i32, ptr %60, align 4, !tbaa !9
  %62 = icmp ne i32 %61, 0
  br i1 %62, label %63, label %65

63:                                               ; preds = %43
  %64 = load i32, ptr %16, align 4, !tbaa !9
  store i32 %64, ptr %14, align 4, !tbaa !9
  br label %65

65:                                               ; preds = %63, %43
  br label %66

66:                                               ; preds = %65
  %67 = load i32, ptr %16, align 4, !tbaa !9
  %68 = add nsw i32 %67, 1
  store i32 %68, ptr %16, align 4, !tbaa !9
  br label %39, !llvm.loop !167

69:                                               ; preds = %42
  call void @llvm.lifetime.start.p0(i64 4, ptr %17) #12
  store i32 0, ptr %17, align 4, !tbaa !9
  br label %70

70:                                               ; preds = %89, %69
  %71 = load i32, ptr %17, align 4, !tbaa !9
  %72 = load i32, ptr %7, align 4, !tbaa !9
  %73 = icmp slt i32 %71, %72
  br i1 %73, label %75, label %74

74:                                               ; preds = %70
  call void @llvm.lifetime.end.p0(i64 4, ptr %17) #12
  br label %92

75:                                               ; preds = %70
  %76 = load ptr, ptr %6, align 8, !tbaa !101
  %77 = load i32, ptr %17, align 4, !tbaa !9
  %78 = sext i32 %77 to i64
  %79 = getelementptr inbounds i8, ptr %76, i64 %78
  %80 = load i8, ptr %79, align 1, !tbaa !15
  %81 = zext i8 %80 to i64
  %82 = getelementptr inbounds nuw [17 x i32], ptr %12, i64 0, i64 %81
  %83 = load i32, ptr %82, align 4, !tbaa !9
  %84 = add nsw i32 %83, 1
  store i32 %84, ptr %82, align 4, !tbaa !9
  %85 = trunc i32 %83 to i16
  %86 = load i32, ptr %17, align 4, !tbaa !9
  %87 = sext i32 %86 to i64
  %88 = getelementptr inbounds [1296 x i16], ptr %13, i64 0, i64 %87
  store i16 %85, ptr %88, align 2, !tbaa !11
  br label %89

89:                                               ; preds = %75
  %90 = load i32, ptr %17, align 4, !tbaa !9
  %91 = add nsw i32 %90, 1
  store i32 %91, ptr %17, align 4, !tbaa !9
  br label %70, !llvm.loop !168

92:                                               ; preds = %74
  %93 = load ptr, ptr %10, align 8, !tbaa !96
  %94 = load i32, ptr %93, align 4, !tbaa !9
  %95 = sext i32 %94 to i64
  %96 = getelementptr inbounds [117592 x %struct.VLCElem], ptr @table_data, i64 0, i64 %95
  %97 = load ptr, ptr %8, align 8, !tbaa !164
  %98 = getelementptr inbounds nuw %struct.VLC, ptr %97, i32 0, i32 1
  store ptr %96, ptr %98, align 8, !tbaa !160
  %99 = load ptr, ptr %10, align 8, !tbaa !96
  %100 = load i32, ptr %99, align 4, !tbaa !9
  %101 = sext i32 %100 to i64
  %102 = sub i64 117592, %101
  %103 = trunc i64 %102 to i32
  %104 = load ptr, ptr %8, align 8, !tbaa !164
  %105 = getelementptr inbounds nuw %struct.VLC, ptr %104, i32 0, i32 3
  store i32 %103, ptr %105, align 4, !tbaa !169
  %106 = load ptr, ptr %8, align 8, !tbaa !164
  %107 = load i32, ptr %14, align 4, !tbaa !9
  %108 = icmp sgt i32 %107, 9
  br i1 %108, label %109, label %110

109:                                              ; preds = %92
  br label %112

110:                                              ; preds = %92
  %111 = load i32, ptr %14, align 4, !tbaa !9
  br label %112

112:                                              ; preds = %110, %109
  %113 = phi i32 [ 9, %109 ], [ %111, %110 ]
  %114 = load i32, ptr %7, align 4, !tbaa !9
  %115 = load ptr, ptr %6, align 8, !tbaa !101
  %116 = getelementptr inbounds [1296 x i16], ptr %13, i64 0, i64 0
  %117 = load ptr, ptr %9, align 8, !tbaa !101
  %118 = load ptr, ptr %9, align 8, !tbaa !101
  %119 = icmp ne ptr %118, null
  %120 = xor i1 %119, true
  %121 = xor i1 %120, true
  %122 = zext i1 %121 to i32
  %123 = load ptr, ptr %9, align 8, !tbaa !101
  %124 = icmp ne ptr %123, null
  %125 = xor i1 %124, true
  %126 = xor i1 %125, true
  %127 = zext i1 %126 to i32
  %128 = call i32 @ff_vlc_init_sparse(ptr noundef %106, i32 noundef %113, i32 noundef %114, ptr noundef %115, i32 noundef 1, i32 noundef 1, ptr noundef %116, i32 noundef 2, i32 noundef 2, ptr noundef %117, i32 noundef %122, i32 noundef %127, i32 noundef 3)
  %129 = load ptr, ptr %8, align 8, !tbaa !164
  %130 = getelementptr inbounds nuw %struct.VLC, ptr %129, i32 0, i32 2
  %131 = load i32, ptr %130, align 8, !tbaa !170
  %132 = load ptr, ptr %10, align 8, !tbaa !96
  %133 = load i32, ptr %132, align 4, !tbaa !9
  %134 = add nsw i32 %133, %131
  store i32 %134, ptr %132, align 4, !tbaa !9
  call void @llvm.lifetime.end.p0(i64 4, ptr %14) #12
  call void @llvm.lifetime.end.p0(i64 2592, ptr %13) #12
  call void @llvm.lifetime.end.p0(i64 68, ptr %12) #12
  call void @llvm.lifetime.end.p0(i64 68, ptr %11) #12
  ret void
}