; Function Attrs: cold nounwind optsize uwtable
define internal fastcc void @rv34_gen_vlc_ext(ptr noundef %0, i32 noundef range(i32 16, 1297) %1, ptr noundef %2, ptr noundef %3, ptr noundef nonnull captures(none) %4) unnamed_addr #2 {
  %6 = alloca [17 x i32], align 16
  %7 = alloca [17 x i32], align 16
  %8 = alloca [1296 x i16], align 16
  call void @llvm.lifetime.start.p0(i64 68, ptr nonnull %6) #15
  call void @llvm.memset.p0.i64(ptr noundef nonnull align 16 dereferenceable(68) %6, i8 0, i64 68, i1 false)
  call void @llvm.lifetime.start.p0(i64 68, ptr nonnull %7) #15
  call void @llvm.lifetime.start.p0(i64 2592, ptr nonnull %8) #15
  %wide.trip.count = zext nneg i32 %1 to i64
  br label %10

9:                                                ; preds = %10
  store i32 0, ptr %6, align 16, !tbaa !76
  store i32 0, ptr %7, align 16, !tbaa !76
  br label %17

10:                                               ; preds = %5, %10
  %indvars.iv = phi i64 [ 0, %5 ], [ %indvars.iv.next, %10 ]
  %11 = getelementptr inbounds nuw i8, ptr %0, i64 %indvars.iv
  %12 = load i8, ptr %11, align 1, !tbaa !10
  %13 = zext i8 %12 to i64
  %14 = getelementptr inbounds nuw [17 x i32], ptr %6, i64 0, i64 %13
  %15 = load i32, ptr %14, align 4, !tbaa !76
  %16 = add nsw i32 %15, 1
  store i32 %16, ptr %14, align 4, !tbaa !76
  %indvars.iv.next = add nuw nsw i64 %indvars.iv, 1
  %exitcond.not = icmp eq i64 %indvars.iv.next, %wide.trip.count
  br i1 %exitcond.not, label %9, label %10, !llvm.loop !189

17:                                               ; preds = %9, %17
  %18 = phi i32 [ 0, %9 ], [ %22, %17 ]
  %indvars.iv40 = phi i64 [ 0, %9 ], [ %indvars.iv.next41, %17 ]
  %.03336 = phi i32 [ undef, %9 ], [ %spec.select, %17 ]
  %19 = getelementptr inbounds nuw [17 x i32], ptr %6, i64 0, i64 %indvars.iv40
  %20 = load i32, ptr %19, align 4, !tbaa !76
  %21 = add nsw i32 %20, %18
  %22 = shl i32 %21, 1
  %indvars.iv.next41 = add nuw nsw i64 %indvars.iv40, 1
  %23 = getelementptr inbounds nuw [17 x i32], ptr %7, i64 0, i64 %indvars.iv.next41
  store i32 %22, ptr %23, align 4, !tbaa !76
  %.not = icmp eq i32 %20, 0
  %24 = trunc nuw nsw i64 %indvars.iv40 to i32
  %spec.select = select i1 %.not, i32 %.03336, i32 %24
  %exitcond43.not = icmp eq i64 %indvars.iv.next41, 16
  br i1 %exitcond43.not, label %.preheader, label %17, !llvm.loop !190

25:                                               ; preds = %.preheader
  %26 = load i32, ptr %4, align 4, !tbaa !76
  %27 = sext i32 %26 to i64
  %28 = getelementptr inbounds [117592 x %struct.VLCElem], ptr @table_data, i64 0, i64 %27
  %29 = getelementptr inbounds nuw i8, ptr %2, i64 8
  store ptr %28, ptr %29, align 8, !tbaa !77
  %30 = sub i32 117592, %26
  %31 = getelementptr inbounds nuw i8, ptr %2, i64 20
  store i32 %30, ptr %31, align 4, !tbaa !191
  %32 = tail call i32 @llvm.smin.i32(i32 %spec.select, i32 9)
  %33 = icmp ne ptr %3, null
  %34 = zext i1 %33 to i32
  %35 = call i32 @ff_vlc_init_sparse(ptr noundef %2, i32 noundef %32, i32 noundef %1, ptr noundef nonnull %0, i32 noundef 1, i32 noundef 1, ptr noundef nonnull %8, i32 noundef 2, i32 noundef 2, ptr noundef %3, i32 noundef %34, i32 noundef %34, i32 noundef 3) #15
  %36 = getelementptr inbounds nuw i8, ptr %2, i64 16
  %37 = load i32, ptr %36, align 8, !tbaa !192
  %38 = load i32, ptr %4, align 4, !tbaa !76
  %39 = add nsw i32 %38, %37
  store i32 %39, ptr %4, align 4, !tbaa !76
  call void @llvm.lifetime.end.p0(i64 2592, ptr nonnull %8) #15
  call void @llvm.lifetime.end.p0(i64 68, ptr nonnull %7) #15
  call void @llvm.lifetime.end.p0(i64 68, ptr nonnull %6) #15
  ret void

.preheader:                                       ; preds = %17, %.preheader
  %indvars.iv44 = phi i64 [ %indvars.iv.next45, %.preheader ], [ 0, %17 ]
  %40 = getelementptr inbounds nuw i8, ptr %0, i64 %indvars.iv44
  %41 = load i8, ptr %40, align 1, !tbaa !10
  %42 = zext i8 %41 to i64
  %43 = getelementptr inbounds nuw [17 x i32], ptr %7, i64 0, i64 %42
  %44 = load i32, ptr %43, align 4, !tbaa !76
  %45 = add nsw i32 %44, 1
  store i32 %45, ptr %43, align 4, !tbaa !76
  %46 = trunc i32 %44 to i16
  %47 = getelementptr inbounds nuw [1296 x i16], ptr %8, i64 0, i64 %indvars.iv44
  store i16 %46, ptr %47, align 2, !tbaa !4
  %indvars.iv.next45 = add nuw nsw i64 %indvars.iv44, 1
  %exitcond48.not = icmp eq i64 %indvars.iv.next45, %wide.trip.count
  br i1 %exitcond48.not, label %25, label %.preheader, !llvm.loop !193
}